target datalayout = "e-m:e-p270:32:32-p271:32:32-p272:64:64-i64:64-i128:128-f80:128-n8:16:32:64-S128"
target triple = "x86_64-unknown-linux-gnu"

%"class.v8::IndirectHandleBase" = type { ptr }
%"class.v8::Local.301" = type { %"class.v8::LocalBase.302" }
%"class.v8::LocalBase.302" = type { %"class.v8::IndirectHandleBase" }
%"class.v8::ReturnValue" = type { ptr }

@_ZN4node11performance25performance_process_startE = dso_local global i64 0, align 8

; Function Attrs: mustprogress nounwind uwtable
define internal noundef double @_ZN4node11performanceL18PerformanceNowImplEv() #4 {
entry:
  %call = call i64 @uv_hrtime()
  %0 = load i64, ptr @_ZN4node11performance25performance_process_startE, align 8
  %sub = sub i64 %call, %0
  %conv = uitofp i64 %sub to double
  %div = fdiv double %conv, 1.000000e+06
  ret double %div
}

; Function Attrs: mustprogress nounwind uwtable
define internal void @_ZN4node11performanceL18SlowPerformanceNowERKN2v820FunctionCallbackInfoINS1_5ValueEEE(ptr noundef nonnull align 8 dereferenceable(20) %args) #4 {
entry:
  %isolate.addr.i.i = alloca ptr, align 8
  %index.addr.i.i = alloca i32, align 4
  %addr.i.i = alloca i64, align 8
  %isolate.addr.i = alloca ptr, align 8
  %index.addr.i = alloca i32, align 4
  %this.addr.i16 = alloca ptr, align 8
  %this.addr.i.i = alloca ptr, align 8
  %this.addr.i13 = alloca ptr, align 8
  %this.addr.i10 = alloca ptr, align 8
  %this.addr.i8 = alloca ptr, align 8
  %slot.addr.i = alloca ptr, align 8
  %this.addr.i6 = alloca ptr, align 8
  %handle.i = alloca %"class.v8::Local.301", align 8
  %this.addr.i4 = alloca ptr, align 8
  %this.addr.i2 = alloca ptr, align 8
  %i.addr.i = alloca double, align 8
  %agg.tmp.i = alloca %"class.v8::Local.301", align 8
  %retval.i = alloca %"class.v8::ReturnValue", align 8
  %this.addr.i = alloca ptr, align 8
  %args.addr = alloca ptr, align 8
  %ref.tmp = alloca %"class.v8::ReturnValue", align 8
  store ptr %args, ptr %args.addr, align 8
  %0 = load ptr, ptr %args.addr, align 8
  store ptr %0, ptr %this.addr.i, align 8
  %this1.i = load ptr, ptr %this.addr.i, align 8
  %1 = load ptr, ptr %this1.i, align 8
  %arrayidx.i = getelementptr inbounds i64, ptr %1, i64 3
  store ptr %retval.i, ptr %this.addr.i8, align 8
  store ptr %arrayidx.i, ptr %slot.addr.i, align 8
  %this1.i9 = load ptr, ptr %this.addr.i8, align 8
  %2 = load ptr, ptr %slot.addr.i, align 8
  store ptr %2, ptr %this1.i9, align 8
  %3 = load ptr, ptr %retval.i, align 8
  %coerce.dive = getelementptr inbounds %"class.v8::ReturnValue", ptr %ref.tmp, i32 0, i32 0
  store ptr %3, ptr %coerce.dive, align 8
  %call1 = call noundef double @_ZN4node11performanceL18PerformanceNowImplEv()
  store ptr %ref.tmp, ptr %this.addr.i2, align 8
  store double %call1, ptr %i.addr.i, align 8
  %this1.i3 = load ptr, ptr %this.addr.i2, align 8
  store ptr %this1.i3, ptr %this.addr.i10, align 8
  %this1.i11 = load ptr, ptr %this.addr.i10, align 8
  %4 = load ptr, ptr %this1.i11, align 8
  %arrayidx.i12 = getelementptr inbounds i64, ptr %4, i64 -2
  %5 = load ptr, ptr %arrayidx.i12, align 8
  %6 = load double, ptr %i.addr.i, align 8
  %call2.i = call ptr @_ZN2v86Number3NewEPNS_7IsolateEd(ptr noundef %5, double noundef %6) #3
  store ptr %call2.i, ptr %agg.tmp.i, align 8
  %7 = load ptr, ptr %agg.tmp.i, align 8
  store ptr %7, ptr %handle.i, align 8
  store ptr %this1.i3, ptr %this.addr.i4, align 8
  %this3.i = load ptr, ptr %this.addr.i4, align 8
  store ptr %handle.i, ptr %this.addr.i6, align 8
  %this1.i7 = load ptr, ptr %this.addr.i6, align 8
  %8 = load ptr, ptr %this1.i7, align 8
  %cmp.i = icmp eq ptr %8, null
  br i1 %cmp.i, label %if.then.i, label %if.else.i

if.then.i:                                        ; preds = %entry
  store ptr %this3.i, ptr %this.addr.i13, align 8
  %this1.i14 = load ptr, ptr %this.addr.i13, align 8
  store ptr %this1.i14, ptr %this.addr.i.i, align 8
  %this1.i.i = load ptr, ptr %this.addr.i.i, align 8
  %9 = load ptr, ptr %this1.i.i, align 8
  %arrayidx.i.i = getelementptr inbounds i64, ptr %9, i64 -2
  %10 = load ptr, ptr %arrayidx.i.i, align 8
  store ptr %10, ptr %isolate.addr.i, align 8
  store i32 5, ptr %index.addr.i, align 4
  %11 = load ptr, ptr %isolate.addr.i, align 8
  %12 = load i32, ptr %index.addr.i, align 4
  store ptr %11, ptr %isolate.addr.i.i, align 8
  store i32 %12, ptr %index.addr.i.i, align 4
  %13 = load ptr, ptr %isolate.addr.i.i, align 8
  %14 = ptrtoint ptr %13 to i64
  %add.i.i = add i64 %14, 576
  %15 = load i32, ptr %index.addr.i.i, align 4
  %mul.i.i = mul nsw i32 %15, 8
  %conv.i.i = sext i32 %mul.i.i to i64
  %add1.i.i = add i64 %add.i.i, %conv.i.i
  store i64 %add1.i.i, ptr %addr.i.i, align 8
  %16 = load i64, ptr %addr.i.i, align 8
  %17 = inttoptr i64 %16 to ptr
  %18 = load i64, ptr %17, align 8
  %19 = load ptr, ptr %this3.i, align 8
  store i64 %18, ptr %19, align 8
  br label %_ZN2v811ReturnValueINS_5ValueEE3SetINS_6NumberEEEvNS_5LocalIT_EE.exit

if.else.i:                                        ; preds = %entry
  store ptr %handle.i, ptr %this.addr.i16, align 8
  %this1.i17 = load ptr, ptr %this.addr.i16, align 8
  %20 = load ptr, ptr %this1.i17, align 8
  %21 = load i64, ptr %20, align 8
  %22 = load ptr, ptr %this3.i, align 8
  store i64 %21, ptr %22, align 8
  br label %_ZN2v811ReturnValueINS_5ValueEE3SetINS_6NumberEEEvNS_5LocalIT_EE.exit

_ZN2v811ReturnValueINS_5ValueEE3SetINS_6NumberEEEvNS_5LocalIT_EE.exit: ; preds = %if.else.i, %if.then.i
  ret void
}