; Function Attrs: mustprogress nounwind uwtable
define internal void @_ZN4node11performanceL18SlowPerformanceNowERKN2v820FunctionCallbackInfoINS1_5ValueEEE(ptr nocapture noundef nonnull readonly align 8 dereferenceable(20) %args) #3 {
entry:
  %0 = load ptr, ptr %args, align 8
  %call.i = tail call i64 @uv_hrtime() #20
  %1 = load i64, ptr @_ZN4node11performance25performance_process_startE, align 8
  %sub.i = sub i64 %call.i, %1
  %conv.i = uitofp i64 %sub.i to double
  %div.i = fdiv double %conv.i, 1.000000e+06
  %arrayidx.i12 = getelementptr inbounds i8, ptr %0, i64 8
  %2 = load ptr, ptr %arrayidx.i12, align 8
  %call2.i = tail call ptr @_ZN2v86Number3NewEPNS_7IsolateEd(ptr noundef %2, double noundef %div.i) #20
  %cmp.i = icmp eq ptr %call2.i, null
  br i1 %cmp.i, label %if.then.i, label %_ZN2v811ReturnValueINS_5ValueEE3SetINS_6NumberEEEvNS_5LocalIT_EE.exit

if.then.i:                                        ; preds = %entry
  %3 = load ptr, ptr %arrayidx.i12, align 8
  %4 = ptrtoint ptr %3 to i64
  %add1.i.i = add i64 %4, 616
  %5 = inttoptr i64 %add1.i.i to ptr
  br label %_ZN2v811ReturnValueINS_5ValueEE3SetINS_6NumberEEEvNS_5LocalIT_EE.exit

_ZN2v811ReturnValueINS_5ValueEE3SetINS_6NumberEEEvNS_5LocalIT_EE.exit: ; preds = %entry, %if.then.i
  %storemerge.in = phi ptr [ %5, %if.then.i ], [ %call2.i, %entry ]
  %arrayidx.i = getelementptr inbounds i8, ptr %0, i64 24
  %storemerge = load i64, ptr %storemerge.in, align 8
  store i64 %storemerge, ptr %arrayidx.i, align 8
  ret void
}